target datalayout = "e-m:e-p270:32:32-p271:32:32-p272:64:64-i64:64-i128:128-f80:128-n8:16:32:64-S128"
target triple = "x86_64-pc-linux-gnu"

; Function Attrs: nounwind uwtable
define i32 @X509_cmp_timeframe(ptr noundef %0, ptr noundef %1, ptr noundef %2) #0 {
  %4 = alloca i32, align 4
  %5 = alloca ptr, align 8
  %6 = alloca ptr, align 8
  %7 = alloca ptr, align 8
  %8 = alloca i64, align 8
  %9 = alloca ptr, align 8
  %10 = alloca i64, align 8
  %11 = alloca i32, align 4
  store ptr %0, ptr %5, align 8, !tbaa !90
  store ptr %1, ptr %6, align 8, !tbaa !81
  store ptr %2, ptr %7, align 8, !tbaa !81
  call void @llvm.lifetime.start.p0(i64 8, ptr %8) #8
  call void @llvm.lifetime.start.p0(i64 8, ptr %9) #8
  store ptr null, ptr %9, align 8, !tbaa !77
  call void @llvm.lifetime.start.p0(i64 8, ptr %10) #8
  %12 = load ptr, ptr %5, align 8, !tbaa !90
  %13 = icmp eq ptr %12, null
  br i1 %13, label %14, label %15

14:                                               ; preds = %3
  br label %18

15:                                               ; preds = %3
  %16 = load ptr, ptr %5, align 8, !tbaa !90
  %17 = call i64 @X509_VERIFY_PARAM_get_flags(ptr noundef %16)
  br label %18

18:                                               ; preds = %15, %14
  %19 = phi i64 [ 0, %14 ], [ %17, %15 ]
  store i64 %19, ptr %10, align 8, !tbaa !89
  %20 = load i64, ptr %10, align 8, !tbaa !89
  %21 = and i64 %20, 2
  %22 = icmp ne i64 %21, 0
  br i1 %22, label %23, label %26

23:                                               ; preds = %18
  %24 = load ptr, ptr %5, align 8, !tbaa !90
  %25 = call i64 @X509_VERIFY_PARAM_get_time(ptr noundef %24)
  store i64 %25, ptr %8, align 8, !tbaa !89
  store ptr %8, ptr %9, align 8, !tbaa !77
  br label %32

26:                                               ; preds = %18
  %27 = load i64, ptr %10, align 8, !tbaa !89
  %28 = and i64 %27, 2097152
  %29 = icmp ne i64 %28, 0
  br i1 %29, label %30, label %31

30:                                               ; preds = %26
  store i32 0, ptr %4, align 4
  store i32 1, ptr %11, align 4
  br label %51

31:                                               ; preds = %26
  br label %32

32:                                               ; preds = %31, %23
  %33 = load ptr, ptr %7, align 8, !tbaa !81
  %34 = icmp ne ptr %33, null
  br i1 %34, label %35, label %41

35:                                               ; preds = %32
  %36 = load ptr, ptr %7, align 8, !tbaa !81
  %37 = load ptr, ptr %9, align 8, !tbaa !77
  %38 = call i32 @X509_cmp_time(ptr noundef %36, ptr noundef %37)
  %39 = icmp slt i32 %38, 0
  br i1 %39, label %40, label %41

40:                                               ; preds = %35
  store i32 1, ptr %4, align 4
  store i32 1, ptr %11, align 4
  br label %51

41:                                               ; preds = %35, %32
  %42 = load ptr, ptr %6, align 8, !tbaa !81
  %43 = icmp ne ptr %42, null
  br i1 %43, label %44, label %50

44:                                               ; preds = %41
  %45 = load ptr, ptr %6, align 8, !tbaa !81
  %46 = load ptr, ptr %9, align 8, !tbaa !77
  %47 = call i32 @X509_cmp_time(ptr noundef %45, ptr noundef %46)
  %48 = icmp sgt i32 %47, 0
  br i1 %48, label %49, label %50

49:                                               ; preds = %44
  store i32 -1, ptr %4, align 4
  store i32 1, ptr %11, align 4
  br label %51

50:                                               ; preds = %44, %41
  store i32 0, ptr %4, align 4
  store i32 1, ptr %11, align 4
  br label %51

51:                                               ; preds = %50, %49, %40, %30
  call void @llvm.lifetime.end.p0(i64 8, ptr %10) #8
  call void @llvm.lifetime.end.p0(i64 8, ptr %9) #8
  call void @llvm.lifetime.end.p0(i64 8, ptr %8) #8
  %52 = load i32, ptr %4, align 4
  ret i32 %52
}