; Function Attrs: nounwind uwtable
define range(i32 -1, 2) i32 @X509_cmp_timeframe(ptr noundef %0, ptr noundef %1, ptr noundef %2) local_unnamed_addr #0 {
  %4 = alloca i64, align 8
  call void @llvm.lifetime.start.p0(i64 8, ptr nonnull %4) #10
  %5 = icmp eq ptr %0, null
  br i1 %5, label %.thread19, label %6

6:                                                ; preds = %3
  %7 = tail call i64 @X509_VERIFY_PARAM_get_flags(ptr noundef nonnull %0) #10
  %8 = and i64 %7, 2
  %.not = icmp eq i64 %8, 0
  br i1 %.not, label %11, label %9

9:                                                ; preds = %6
  %10 = tail call i64 @X509_VERIFY_PARAM_get_time(ptr noundef nonnull %0) #10
  store i64 %10, ptr %4, align 8, !tbaa !101
  br label %.thread19

11:                                               ; preds = %6
  %12 = and i64 %7, 2097152
  %.not15 = icmp eq i64 %12, 0
  br i1 %.not15, label %.thread19, label %21

.thread19:                                        ; preds = %3, %11, %9
  %.011 = phi ptr [ %4, %9 ], [ null, %11 ], [ null, %3 ]
  %.not16 = icmp eq ptr %2, null
  br i1 %.not16, label %16, label %13

13:                                               ; preds = %.thread19
  %14 = call i32 @X509_cmp_time(ptr noundef nonnull %2, ptr noundef %.011)
  %15 = icmp slt i32 %14, 0
  br i1 %15, label %21, label %16

16:                                               ; preds = %13, %.thread19
  %.not17 = icmp eq ptr %1, null
  br i1 %.not17, label %20, label %17

17:                                               ; preds = %16
  %18 = call i32 @X509_cmp_time(ptr noundef nonnull %1, ptr noundef %.011)
  %19 = icmp sgt i32 %18, 0
  br i1 %19, label %21, label %20

20:                                               ; preds = %17, %16
  br label %21

21:                                               ; preds = %17, %13, %11, %20
  %.0 = phi i32 [ 0, %20 ], [ 0, %11 ], [ 1, %13 ], [ -1, %17 ]
  call void @llvm.lifetime.end.p0(i64 8, ptr nonnull %4) #10
  ret i32 %.0
}